ccopy_reg
_reconstructor
p0
(cbooks
book
p1
c__builtin__
object
p2
Ntp3
Rp4
(dp5
S'ISBN'
p6
S'123432'
p7
sS'name'
p8
S'maths'
p9
sS'bookId'
p10
I1
sS'author'
p11
S'corth'
p12
sS'issued'
p13
I01
sS'quantityAvbl'
p14
I10
sS'issuer'
p15
(lp16
I1
asb.ccopy_reg
_reconstructor
p0
(cbooks
book
p1
c__builtin__
object
p2
Ntp3
Rp4
(dp5
S'ISBN'
p6
S'675432'
p7
sS'name'
p8
S'computer architecture'
p9
sS'bookId'
p10
I1002
sS'author'
p11
S'morris mano'
p12
sS'issued'
p13
I01
sS'issuer'
p14
(lp15
I2011
asb.ccopy_reg
_reconstructor
p0
(cbooks
book
p1
c__builtin__
object
p2
Ntp3
Rp4
(dp5
S'ISBN'
p6
S'675432'
p7
sS'name'
p8
S'comp system and arch'
p9
sS'bookId'
p10
I1003
sS'author'
p11
S'morris mano'
p12
sS'issued'
p13
I00
sS'issuer'
p14
(lp15
sb.ccopy_reg
_reconstructor
p0
(cbooks
book
p1
c__builtin__
object
p2
Ntp3
Rp4
(dp5
S'ISBN'
p6
S'123432'
p7
sS'name'
p8
S'mathematics'
p9
sS'bookId'
p10
I2
sS'author'
p11
S'corth'
p12
sS'issued'
p13
I01
sS'issuer'
p14
(lp15
sb.