(istudent
student
p0
(dp1
S'issuedBooks'
p2
(dp3
I1
cdatetime
datetime
p4
(S'\x07\xe1\x07\n\x00\x00\x00\x00\x00\x00'
p5
tp6
Rp7
sI1002
g4
(S'\x07\xe1\t\x14\x00\x00\x00\x00\x00\x00'
p8
tp9
Rp10
ssS'studentId'
p11
I2011
sS'fine'
p12
I0
sS'name'
p13
S'pratyush'
p14
sb.(istudent
student
p0
(dp1
S'issuedBooks'
p2
(dp3
sS'studentId'
p4
I2012
sS'fine'
p5
I0
sS'name'
p6
S'aishanya'
p7
sb.